target datalayout = "e-m:e-p270:32:32-p271:32:32-p272:64:64-i64:64-i128:128-f80:128-n8:16:32:64-S128"
target triple = "x86_64-pc-linux-gnu"

%"struct.boost::source_location" = type { ptr, ptr, i32, i32 }
%"class.boost::core::basic_string_view" = type { ptr, i64 }

@.str = private unnamed_addr constant [115 x i8] c"generated/home/dtcxzyw/WorkSpace/Projects/compilers/llvm-opt-benchmark/bench/boost/boost/libs/url/src/url_base.cpp\00", align 1
@.str.1 = private unnamed_addr constant [14 x i8] c"set_scheme_id\00", align 1

; Function Attrs: mustprogress nounwind uwtable
define linkonce_odr hidden void @_ZN5boost15source_locationC2EPKcjS2_j(ptr noundef nonnull align 8 dereferenceable(24) %0, ptr noundef %1, i32 noundef %2, ptr noundef %3, i32 noundef %4) unnamed_addr #2 comdat align 2 {
  %6 = alloca ptr, align 8
  %7 = alloca ptr, align 8
  %8 = alloca i32, align 4
  %9 = alloca ptr, align 8
  %10 = alloca i32, align 4
  store ptr %0, ptr %6, align 8, !tbaa !7
  store ptr %1, ptr %7, align 8, !tbaa !7
  store i32 %2, ptr %8, align 4, !tbaa !3
  store ptr %3, ptr %9, align 8, !tbaa !7
  store i32 %4, ptr %10, align 4, !tbaa !3
  %11 = load ptr, ptr %6, align 8
  %12 = getelementptr inbounds nuw %"struct.boost::source_location", ptr %11, i32 0, i32 0
  %13 = load ptr, ptr %7, align 8, !tbaa !7
  store ptr %13, ptr %12, align 8, !tbaa !47
  %14 = getelementptr inbounds nuw %"struct.boost::source_location", ptr %11, i32 0, i32 1
  %15 = load ptr, ptr %9, align 8, !tbaa !7
  store ptr %15, ptr %14, align 8, !tbaa !49
  %16 = getelementptr inbounds nuw %"struct.boost::source_location", ptr %11, i32 0, i32 2
  %17 = load i32, ptr %8, align 4, !tbaa !3
  store i32 %17, ptr %16, align 8, !tbaa !50
  %18 = getelementptr inbounds nuw %"struct.boost::source_location", ptr %11, i32 0, i32 3
  %19 = load i32, ptr %10, align 4, !tbaa !3
  store i32 %19, ptr %18, align 4, !tbaa !51
  ret void
}

; Function Attrs: mustprogress uwtable
define noundef nonnull align 8 dereferenceable(216) ptr @_ZN5boost4urls8url_base13set_scheme_idENS0_6schemeE(ptr noundef nonnull align 8 dereferenceable(216) %0, i16 noundef zeroext %1) #5 align 2 {
  %3 = alloca ptr, align 8
  %4 = alloca ptr, align 8
  %5 = alloca i16, align 2
  %6 = alloca %"struct.boost::source_location", align 8
  %7 = alloca %"class.boost::core::basic_string_view", align 8
  store ptr %0, ptr %4, align 8, !tbaa !7
  store i16 %1, ptr %5, align 2, !tbaa !38
  %8 = load ptr, ptr %4, align 8
  %9 = load i16, ptr %5, align 2, !tbaa !38
  %10 = icmp eq i16 %9, 1
  br i1 %10, label %11, label %12

11:                                               ; preds = %2
  call void @llvm.lifetime.start.p0(i64 24, ptr %6) #9
  call void @_ZN5boost15source_locationC2EPKcjS2_j(ptr noundef nonnull align 8 dereferenceable(24) %6, ptr noundef @.str, i32 noundef 160, ptr noundef @.str.1, i32 noundef 9) #9
  call void @_ZN5boost4urls6detail22throw_invalid_argumentERKNS_15source_locationE(ptr noundef nonnull align 8 dereferenceable(24) %6) #22
  unreachable

12:                                               ; preds = %2
  %13 = load i16, ptr %5, align 2, !tbaa !38
  %14 = icmp eq i16 %13, 0
  br i1 %14, label %15, label %17

15:                                               ; preds = %12
  %16 = call noundef nonnull align 8 dereferenceable(216) ptr @_ZN5boost4urls8url_base13remove_schemeEv(ptr noundef nonnull align 8 dereferenceable(216) %8)
  store ptr %16, ptr %3, align 8
  br label %29

17:                                               ; preds = %12
  %18 = load i16, ptr %5, align 2, !tbaa !38
  %19 = call { ptr, i64 } @_ZN5boost4urls9to_stringENS0_6schemeE(i16 noundef zeroext %18) #9
  %20 = getelementptr inbounds nuw { ptr, i64 }, ptr %7, i32 0, i32 0
  %21 = extractvalue { ptr, i64 } %19, 0
  store ptr %21, ptr %20, align 8
  %22 = getelementptr inbounds nuw { ptr, i64 }, ptr %7, i32 0, i32 1
  %23 = extractvalue { ptr, i64 } %19, 1
  store i64 %23, ptr %22, align 8
  %24 = load i16, ptr %5, align 2, !tbaa !38
  %25 = getelementptr inbounds nuw { ptr, i64 }, ptr %7, i32 0, i32 0
  %26 = load ptr, ptr %25, align 8
  %27 = getelementptr inbounds nuw { ptr, i64 }, ptr %7, i32 0, i32 1
  %28 = load i64, ptr %27, align 8
  call void @_ZN5boost4urls8url_base15set_scheme_implENS_4core17basic_string_viewIcEENS0_6schemeE(ptr noundef nonnull align 8 dereferenceable(216) %8, ptr %26, i64 %28, i16 noundef zeroext %24)
  store ptr %8, ptr %3, align 8
  br label %29

29:                                               ; preds = %17, %15
  %30 = load ptr, ptr %3, align 8
  ret ptr %30
}