; Function Attrs: mustprogress uwtable
define noundef nonnull align 8 dereferenceable(216) ptr @_ZN5boost4urls8url_base13set_scheme_idENS0_6schemeE(ptr noundef nonnull returned align 8 dereferenceable(216) %0, i16 noundef zeroext %1) local_unnamed_addr #10 align 2 {
  %3 = alloca %"struct.boost::source_location", align 8
  switch i16 %1, label %10 [
    i16 1, label %4
    i16 0, label %8
  ]

4:                                                ; preds = %2
  call void @llvm.lifetime.start.p0(i64 24, ptr nonnull %3) #30
  store ptr @.str, ptr %3, align 8, !tbaa !43
  %5 = getelementptr inbounds nuw i8, ptr %3, i64 8
  store ptr @.str.1, ptr %5, align 8, !tbaa !45
  %6 = getelementptr inbounds nuw i8, ptr %3, i64 16
  store i32 160, ptr %6, align 8, !tbaa !46
  %7 = getelementptr inbounds nuw i8, ptr %3, i64 20
  store i32 9, ptr %7, align 4, !tbaa !47
  call void @_ZN5boost4urls6detail22throw_invalid_argumentERKNS_15source_locationE(ptr noundef nonnull align 8 dereferenceable(24) %3) #32
  unreachable

8:                                                ; preds = %2
  %9 = tail call noundef nonnull align 8 dereferenceable(216) ptr @_ZN5boost4urls8url_base13remove_schemeEv(ptr noundef nonnull align 8 dereferenceable(216) %0)
  br label %14

10:                                               ; preds = %2
  %11 = tail call { ptr, i64 } @_ZN5boost4urls9to_stringENS0_6schemeE(i16 noundef zeroext %1) #30
  %12 = extractvalue { ptr, i64 } %11, 0
  %13 = extractvalue { ptr, i64 } %11, 1
  tail call void @_ZN5boost4urls8url_base15set_scheme_implENS_4core17basic_string_viewIcEENS0_6schemeE(ptr noundef nonnull align 8 dereferenceable(216) %0, ptr %12, i64 %13, i16 noundef zeroext %1)
  br label %14

14:                                               ; preds = %10, %8
  ret ptr %0
}